Certificate:
    Data:
        Version: 3 (0x2)
        Serial Number: 1 (0x1)
        Signature Algorithm: sha256WithRSAEncryption
        Issuer: C=PL, ST=mazowieckie, L=Warszawa, O=Test CA, OU=Test CA, CN=Test CA/emailAddress=test@testca.com
        Validity
            Not Before: Jan 15 10:49:34 2021 GMT
            Not After : Jan 15 10:49:34 2022 GMT
        Subject: C=PL, ST=mazowieckie, L=Warszawa, O=SafeNotes, ltd., CN=SafeNotes
        Subject Public Key Info:
            Public Key Algorithm: rsaEncryption
                RSA Public-Key: (2048 bit)
                Modulus:
                    00:9a:5d:5a:f0:47:d3:89:21:fe:47:05:9d:8c:6a:
                    18:c9:28:3e:92:65:2f:27:71:96:bc:5c:80:95:79:
                    21:7c:2e:b9:ce:cf:c1:0e:a6:f0:16:13:77:45:29:
                    8f:2f:9e:68:1e:17:f8:5d:a9:0a:72:7c:09:44:eb:
                    ca:85:3b:c0:01:28:e9:3a:12:68:0d:60:85:a4:c3:
                    79:79:81:96:cf:27:32:59:2e:59:ad:93:04:33:87:
                    90:03:87:42:9f:da:75:d4:b5:ca:a2:e3:e9:04:0b:
                    b3:5a:6c:d6:74:7b:c7:0a:f5:3e:85:01:af:23:09:
                    44:df:ba:08:90:93:33:a5:92:0d:02:20:6b:8a:5d:
                    cc:ce:2d:c1:c9:b3:ae:f2:a4:58:d5:93:62:b7:0a:
                    a9:5b:ef:29:2c:34:ab:6c:1b:4e:c7:ed:c8:62:eb:
                    a3:d2:99:d5:81:18:92:a4:c9:34:e0:cf:d1:77:0c:
                    53:7e:70:39:53:a5:8e:e8:ae:c4:7d:8f:43:3b:77:
                    b5:f0:69:a1:03:b1:7f:6f:49:72:8d:33:09:77:19:
                    31:79:3b:f1:f3:1c:fe:b5:ae:17:41:20:22:f2:96:
                    91:92:62:8e:04:24:89:88:04:55:53:e2:77:a3:9a:
                    a9:8f:57:7d:10:e7:7e:c3:3c:d4:5e:1f:3c:99:e7:
                    60:67
                Exponent: 65537 (0x10001)
        X509v3 extensions:
            X509v3 Subject Key Identifier: 
                75:4D:69:4A:B4:94:C9:2C:61:17:8A:0F:63:92:A1:7B:05:4E:43:20
            X509v3 Authority Key Identifier: 
                keyid:E6:DD:34:AC:A7:26:3E:8B:2C:8F:7E:AD:B8:91:23:F7:2B:98:16:13

            X509v3 Basic Constraints: 
                CA:FALSE
            X509v3 Key Usage: 
                Digital Signature, Key Encipherment
            X509v3 Subject Alternative Name: 
                DNS:example.com, DNS:www.example.com, DNS:mail.example.com, DNS:ftp.example.com, IP Address:127.0.0.1, IP Address:0:0:0:0:0:0:0:1
            Netscape Comment: 
                OpenSSL Generated Certificate
    Signature Algorithm: sha256WithRSAEncryption
         76:7b:c9:bc:c3:5b:a8:9c:a2:be:b8:8b:cb:97:0f:fc:f4:51:
         3b:7a:f7:a1:03:97:48:4c:05:29:b4:67:f5:58:f1:6e:36:8e:
         a4:35:af:bf:a7:24:e7:60:b2:1b:68:f1:dc:a9:87:ed:b4:af:
         c3:39:d0:7f:d0:dc:58:87:89:e6:47:20:69:31:81:e0:f6:89:
         be:d6:2e:b1:04:b3:99:f8:6b:5f:7b:63:b6:05:4a:6c:09:ab:
         11:1c:11:b8:0f:d3:f4:8b:4a:20:68:1d:2d:be:82:24:4e:e2:
         fb:4c:8c:44:00:fa:a2:16:4c:df:a2:af:36:51:5d:5d:63:1a:
         51:8d:9d:92:2d:cb:db:ce:a9:8d:cc:7c:dc:97:d6:6b:4c:0c:
         d6:2b:9e:2e:22:54:de:8b:a2:28:6b:8a:b3:28:85:db:80:40:
         6b:69:44:54:d7:56:b0:43:03:63:ab:21:88:10:ff:93:d6:a3:
         0e:db:f8:f3:4f:ca:72:92:cd:7c:d7:32:3b:6c:e5:5d:79:7d:
         f6:6a:7f:a9:84:cc:12:97:9b:f6:fc:11:0e:7f:a1:82:b0:00:
         40:fd:84:01:1a:b5:13:00:0a:18:f4:00:48:43:e3:a7:7e:fe:
         f1:71:81:84:98:10:fb:2c:92:2a:90:47:80:77:6b:06:5e:4c:
         52:19:d4:37:36:f8:49:65:11:6f:6c:5b:67:6d:c2:c1:d1:05:
         bb:e5:76:02:6f:d7:20:7c:4d:bb:7c:aa:47:c9:f8:75:64:57:
         0a:3c:cd:dc:24:b9:b7:1a:b0:59:30:59:a1:5d:5c:63:9f:11:
         83:0d:23:5a:70:74:5a:d8:06:af:56:39:c3:7e:8e:52:7d:9f:
         ad:ec:58:f4:45:47:a5:59:b9:63:2c:64:e2:3c:cb:0b:2e:6c:
         b5:fc:54:f8:d8:2a:a8:3e:fa:c6:cc:98:46:ac:33:7c:01:af:
         16:5f:fa:f2:32:dd:fb:53:6d:30:25:e1:e7:98:47:7d:b5:b8:
         2b:20:26:65:33:28:64:bc:27:36:43:bd:e6:ba:a3:1f:80:49:
         f6:49:a7:6b:c7:c2:18:af:cb:e8:8e:bb:cb:9d:ca:e0:53:fa:
         3c:ea:f6:3f:3f:9c:96:99:26:68:49:c8:23:17:62:d1:40:57:
         d8:ff:a2:ed:ea:bb:89:58:41:5b:a0:f0:4d:06:cb:87:ce:28:
         bb:f5:fd:15:3e:25:01:86:37:76:18:65:40:9d:d0:cf:c9:15:
         b7:3d:34:e4:d6:90:49:d8:6c:f3:a1:bc:11:e5:e3:52:82:2f:
         8a:94:1d:b6:a2:e3:62:fd:ca:9b:8b:fa:b0:5e:7a:54:79:ff:
         b2:ef:9a:8d:54:ec:3d:a5
-----BEGIN CERTIFICATE-----
MIIFWjCCA0KgAwIBAgIBATANBgkqhkiG9w0BAQsFADCBjDELMAkGA1UEBhMCUEwx
FDASBgNVBAgMC21hem93aWVja2llMREwDwYDVQQHDAhXYXJzemF3YTEQMA4GA1UE
CgwHVGVzdCBDQTEQMA4GA1UECwwHVGVzdCBDQTEQMA4GA1UEAwwHVGVzdCBDQTEe
MBwGCSqGSIb3DQEJARYPdGVzdEB0ZXN0Y2EuY29tMB4XDTIxMDExNTEwNDkzNFoX
DTIyMDExNTEwNDkzNFowZDELMAkGA1UEBhMCUEwxFDASBgNVBAgMC21hem93aWVj
a2llMREwDwYDVQQHDAhXYXJzemF3YTEYMBYGA1UECgwPU2FmZU5vdGVzLCBsdGQu
MRIwEAYDVQQDDAlTYWZlTm90ZXMwggEiMA0GCSqGSIb3DQEBAQUAA4IBDwAwggEK
AoIBAQCaXVrwR9OJIf5HBZ2MahjJKD6SZS8ncZa8XICVeSF8LrnOz8EOpvAWE3dF
KY8vnmgeF/hdqQpyfAlE68qFO8ABKOk6EmgNYIWkw3l5gZbPJzJZLlmtkwQzh5AD
h0Kf2nXUtcqi4+kEC7NabNZ0e8cK9T6FAa8jCUTfugiQkzOlkg0CIGuKXczOLcHJ
s67ypFjVk2K3Cqlb7yksNKtsG07H7chi66PSmdWBGJKkyTTgz9F3DFN+cDlTpY7o
rsR9j0M7d7XwaaEDsX9vSXKNMwl3GTF5O/HzHP61rhdBICLylpGSYo4EJImIBFVT
4nejmqmPV30Q537DPNReHzyZ52BnAgMBAAGjge0wgeowHQYDVR0OBBYEFHVNaUq0
lMksYReKD2OSoXsFTkMgMB8GA1UdIwQYMBaAFObdNKynJj6LLI9+rbiRI/crmBYT
MAkGA1UdEwQCMAAwCwYDVR0PBAQDAgWgMGIGA1UdEQRbMFmCC2V4YW1wbGUuY29t
gg93d3cuZXhhbXBsZS5jb22CEG1haWwuZXhhbXBsZS5jb22CD2Z0cC5leGFtcGxl
LmNvbYcEfwAAAYcQAAAAAAAAAAAAAAAAAAAAATAsBglghkgBhvhCAQ0EHxYdT3Bl
blNTTCBHZW5lcmF0ZWQgQ2VydGlmaWNhdGUwDQYJKoZIhvcNAQELBQADggIBAHZ7
ybzDW6icor64i8uXD/z0UTt696EDl0hMBSm0Z/VY8W42jqQ1r7+nJOdgshto8dyp
h+20r8M50H/Q3FiHieZHIGkxgeD2ib7WLrEEs5n4a197Y7YFSmwJqxEcEbgP0/SL
SiBoHS2+giRO4vtMjEQA+qIWTN+irzZRXV1jGlGNnZIty9vOqY3MfNyX1mtMDNYr
ni4iVN6LoihrirMohduAQGtpRFTXVrBDA2OrIYgQ/5PWow7b+PNPynKSzXzXMjts
5V15ffZqf6mEzBKXm/b8EQ5/oYKwAED9hAEatRMAChj0AEhD46d+/vFxgYSYEPss
kiqQR4B3awZeTFIZ1Dc2+EllEW9sW2dtwsHRBbvldgJv1yB8Tbt8qkfJ+HVkVwo8
zdwkubcasFkwWaFdXGOfEYMNI1pwdFrYBq9WOcN+jlJ9n63sWPRFR6VZuWMsZOI8
ywsubLX8VPjYKqg++sbMmEasM3wBrxZf+vIy3ftTbTAl4eeYR321uCsgJmUzKGS8
JzZDvea6ox+ASfZJp2vHwhivy+iOu8udyuBT+jzq9j8/nJaZJmhJyCMXYtFAV9j/
ou3qu4lYQVug8E0Gy4fOKLv1/RU+JQGGN3YYZUCd0M/JFbc9NOTWkEnYbPOhvBHl
41KCL4qUHbai42L9ypuL+rBeelR5/7Lvmo1U7D2l
-----END CERTIFICATE-----
